#include <math.h>
#include <stdio.h>
#include <stdlib.h>
#include <string.h>


void circle(int list[][100], int row_min, int row_max, int col_min, int col_max)
{
  int i,j;
  if (row_min==row_max || col_min==col_max) {
    for (i=col_min; i<col_max; i++) {
      printf("%d\n",list[row_min][i]);
    }
    for (i=row_min; i<=row_max; i++) {
      printf("%d\n",list[i][col_max]);
    }
  } else {
    for (i=col_min; i<col_max; i++) {
      printf("%d\n",list[row_min][i]);
    }
    for (i=row_min; i<row_max; i++) {
      printf("%d\n",list[i][col_max]);
    }
    for (i=col_max; i>col_min; i--) {
      printf("%d\n",list[row_max][i]);
    }
    for (i=row_max; i>row_min; i--) {
      printf("%d\n",list[i][col_min]);
    }
  }
}

int main() 
{
  int array[100][100];
  int i,j;
  int sumrow,sumcol;
  scanf("%d %d",&sumrow,&sumcol);
  for (i=0; i<sumrow; i++) {
    for (j=0; j<sumcol; j++) {
      scanf("%d",&array[i][j]);
    }
  }

  int row_min=0, row_max=sumrow-1, col_min=0, col_max=sumcol-1;

  while (row_min<=row_max && col_min<=col_max) {
    circle(array, row_min, row_max, col_min, col_max);
    row_min++;
    row_max--;
    col_min++;
    col_max--;
  }
  
  return 0;
}