; ModuleID = '46/994.c'
source_filename = "46/994.c"
target datalayout = "e-m:e-p270:32:32-p271:32:32-p272:64:64-i64:64-f80:128-n8:16:32:64-S128"
target triple = "x86_64-pc-linux-gnu"

@.str = private unnamed_addr constant [4 x i8] c"%d\0A\00", align 1
@.str.1 = private unnamed_addr constant [6 x i8] c"%d %d\00", align 1
@.str.2 = private unnamed_addr constant [3 x i8] c"%d\00", align 1

; Function Attrs: noinline nounwind uwtable
define dso_local void @circle([100 x i32]* %0, i32 %1, i32 %2, i32 %3, i32 %4) #0 {
  %6 = alloca [100 x i32]*, align 8
  %7 = alloca i32, align 4
  %8 = alloca i32, align 4
  %9 = alloca i32, align 4
  %10 = alloca i32, align 4
  %11 = alloca i32, align 4
  %12 = alloca i32, align 4
  store [100 x i32]* %0, [100 x i32]** %6, align 8
  store i32 %1, i32* %7, align 4
  store i32 %2, i32* %8, align 4
  store i32 %3, i32* %9, align 4
  store i32 %4, i32* %10, align 4
  %13 = load i32, i32* %7, align 4
  %14 = load i32, i32* %8, align 4
  %15 = icmp eq i32 %13, %14
  br i1 %15, label %20, label %16

16:                                               ; preds = %5
  %17 = load i32, i32* %9, align 4
  %18 = load i32, i32* %10, align 4
  %19 = icmp eq i32 %17, %18
  br i1 %19, label %20, label %59

20:                                               ; preds = %16, %5
  %21 = load i32, i32* %9, align 4
  store i32 %21, i32* %11, align 4
  br label %22

22:                                               ; preds = %36, %20
  %23 = load i32, i32* %11, align 4
  %24 = load i32, i32* %10, align 4
  %25 = icmp slt i32 %23, %24
  br i1 %25, label %26, label %39

26:                                               ; preds = %22
  %27 = load [100 x i32]*, [100 x i32]** %6, align 8
  %28 = load i32, i32* %7, align 4
  %29 = sext i32 %28 to i64
  %30 = getelementptr inbounds [100 x i32], [100 x i32]* %27, i64 %29
  %31 = load i32, i32* %11, align 4
  %32 = sext i32 %31 to i64
  %33 = getelementptr inbounds [100 x i32], [100 x i32]* %30, i64 0, i64 %32
  %34 = load i32, i32* %33, align 4
  %35 = call i32 (i8*, ...) @printf(i8* getelementptr inbounds ([4 x i8], [4 x i8]* @.str, i64 0, i64 0), i32 %34)
  br label %36

36:                                               ; preds = %26
  %37 = load i32, i32* %11, align 4
  %38 = add nsw i32 %37, 1
  store i32 %38, i32* %11, align 4
  br label %22

39:                                               ; preds = %22
  %40 = load i32, i32* %7, align 4
  store i32 %40, i32* %11, align 4
  br label %41

41:                                               ; preds = %55, %39
  %42 = load i32, i32* %11, align 4
  %43 = load i32, i32* %8, align 4
  %44 = icmp sle i32 %42, %43
  br i1 %44, label %45, label %58

45:                                               ; preds = %41
  %46 = load [100 x i32]*, [100 x i32]** %6, align 8
  %47 = load i32, i32* %11, align 4
  %48 = sext i32 %47 to i64
  %49 = getelementptr inbounds [100 x i32], [100 x i32]* %46, i64 %48
  %50 = load i32, i32* %10, align 4
  %51 = sext i32 %50 to i64
  %52 = getelementptr inbounds [100 x i32], [100 x i32]* %49, i64 0, i64 %51
  %53 = load i32, i32* %52, align 4
  %54 = call i32 (i8*, ...) @printf(i8* getelementptr inbounds ([4 x i8], [4 x i8]* @.str, i64 0, i64 0), i32 %53)
  br label %55

55:                                               ; preds = %45
  %56 = load i32, i32* %11, align 4
  %57 = add nsw i32 %56, 1
  store i32 %57, i32* %11, align 4
  br label %41

58:                                               ; preds = %41
  br label %136

59:                                               ; preds = %16
  %60 = load i32, i32* %9, align 4
  store i32 %60, i32* %11, align 4
  br label %61

61:                                               ; preds = %75, %59
  %62 = load i32, i32* %11, align 4
  %63 = load i32, i32* %10, align 4
  %64 = icmp slt i32 %62, %63
  br i1 %64, label %65, label %78

65:                                               ; preds = %61
  %66 = load [100 x i32]*, [100 x i32]** %6, align 8
  %67 = load i32, i32* %7, align 4
  %68 = sext i32 %67 to i64
  %69 = getelementptr inbounds [100 x i32], [100 x i32]* %66, i64 %68
  %70 = load i32, i32* %11, align 4
  %71 = sext i32 %70 to i64
  %72 = getelementptr inbounds [100 x i32], [100 x i32]* %69, i64 0, i64 %71
  %73 = load i32, i32* %72, align 4
  %74 = call i32 (i8*, ...) @printf(i8* getelementptr inbounds ([4 x i8], [4 x i8]* @.str, i64 0, i64 0), i32 %73)
  br label %75

75:                                               ; preds = %65
  %76 = load i32, i32* %11, align 4
  %77 = add nsw i32 %76, 1
  store i32 %77, i32* %11, align 4
  br label %61

78:                                               ; preds = %61
  %79 = load i32, i32* %7, align 4
  store i32 %79, i32* %11, align 4
  br label %80

80:                                               ; preds = %94, %78
  %81 = load i32, i32* %11, align 4
  %82 = load i32, i32* %8, align 4
  %83 = icmp slt i32 %81, %82
  br i1 %83, label %84, label %97

84:                                               ; preds = %80
  %85 = load [100 x i32]*, [100 x i32]** %6, align 8
  %86 = load i32, i32* %11, align 4
  %87 = sext i32 %86 to i64
  %88 = getelementptr inbounds [100 x i32], [100 x i32]* %85, i64 %87
  %89 = load i32, i32* %10, align 4
  %90 = sext i32 %89 to i64
  %91 = getelementptr inbounds [100 x i32], [100 x i32]* %88, i64 0, i64 %90
  %92 = load i32, i32* %91, align 4
  %93 = call i32 (i8*, ...) @printf(i8* getelementptr inbounds ([4 x i8], [4 x i8]* @.str, i64 0, i64 0), i32 %92)
  br label %94

94:                                               ; preds = %84
  %95 = load i32, i32* %11, align 4
  %96 = add nsw i32 %95, 1
  store i32 %96, i32* %11, align 4
  br label %80

97:                                               ; preds = %80
  %98 = load i32, i32* %10, align 4
  store i32 %98, i32* %11, align 4
  br label %99

99:                                               ; preds = %113, %97
  %100 = load i32, i32* %11, align 4
  %101 = load i32, i32* %9, align 4
  %102 = icmp sgt i32 %100, %101
  br i1 %102, label %103, label %116

103:                                              ; preds = %99
  %104 = load [100 x i32]*, [100 x i32]** %6, align 8
  %105 = load i32, i32* %8, align 4
  %106 = sext i32 %105 to i64
  %107 = getelementptr inbounds [100 x i32], [100 x i32]* %104, i64 %106
  %108 = load i32, i32* %11, align 4
  %109 = sext i32 %108 to i64
  %110 = getelementptr inbounds [100 x i32], [100 x i32]* %107, i64 0, i64 %109
  %111 = load i32, i32* %110, align 4
  %112 = call i32 (i8*, ...) @printf(i8* getelementptr inbounds ([4 x i8], [4 x i8]* @.str, i64 0, i64 0), i32 %111)
  br label %113

113:                                              ; preds = %103
  %114 = load i32, i32* %11, align 4
  %115 = add nsw i32 %114, -1
  store i32 %115, i32* %11, align 4
  br label %99

116:                                              ; preds = %99
  %117 = load i32, i32* %8, align 4
  store i32 %117, i32* %11, align 4
  br label %118

118:                                              ; preds = %132, %116
  %119 = load i32, i32* %11, align 4
  %120 = load i32, i32* %7, align 4
  %121 = icmp sgt i32 %119, %120
  br i1 %121, label %122, label %135

122:                                              ; preds = %118
  %123 = load [100 x i32]*, [100 x i32]** %6, align 8
  %124 = load i32, i32* %11, align 4
  %125 = sext i32 %124 to i64
  %126 = getelementptr inbounds [100 x i32], [100 x i32]* %123, i64 %125
  %127 = load i32, i32* %9, align 4
  %128 = sext i32 %127 to i64
  %129 = getelementptr inbounds [100 x i32], [100 x i32]* %126, i64 0, i64 %128
  %130 = load i32, i32* %129, align 4
  %131 = call i32 (i8*, ...) @printf(i8* getelementptr inbounds ([4 x i8], [4 x i8]* @.str, i64 0, i64 0), i32 %130)
  br label %132

132:                                              ; preds = %122
  %133 = load i32, i32* %11, align 4
  %134 = add nsw i32 %133, -1
  store i32 %134, i32* %11, align 4
  br label %118

135:                                              ; preds = %118
  br label %136

136:                                              ; preds = %135, %58
  ret void
}

declare dso_local i32 @printf(i8*, ...) #1

; Function Attrs: noinline nounwind uwtable
define dso_local i32 @main() #0 {
  %1 = alloca i32, align 4
  %2 = alloca [100 x [100 x i32]], align 16
  %3 = alloca i32, align 4
  %4 = alloca i32, align 4
  %5 = alloca i32, align 4
  %6 = alloca i32, align 4
  %7 = alloca i32, align 4
  %8 = alloca i32, align 4
  %9 = alloca i32, align 4
  %10 = alloca i32, align 4
  store i32 0, i32* %1, align 4
  %11 = call i32 (i8*, ...) @__isoc99_scanf(i8* getelementptr inbounds ([6 x i8], [6 x i8]* @.str.1, i64 0, i64 0), i32* %5, i32* %6)
  store i32 0, i32* %3, align 4
  br label %12

12:                                               ; preds = %33, %0
  %13 = load i32, i32* %3, align 4
  %14 = load i32, i32* %5, align 4
  %15 = icmp slt i32 %13, %14
  br i1 %15, label %16, label %36

16:                                               ; preds = %12
  store i32 0, i32* %4, align 4
  br label %17

17:                                               ; preds = %29, %16
  %18 = load i32, i32* %4, align 4
  %19 = load i32, i32* %6, align 4
  %20 = icmp slt i32 %18, %19
  br i1 %20, label %21, label %32

21:                                               ; preds = %17
  %22 = load i32, i32* %3, align 4
  %23 = sext i32 %22 to i64
  %24 = getelementptr inbounds [100 x [100 x i32]], [100 x [100 x i32]]* %2, i64 0, i64 %23
  %25 = load i32, i32* %4, align 4
  %26 = sext i32 %25 to i64
  %27 = getelementptr inbounds [100 x i32], [100 x i32]* %24, i64 0, i64 %26
  %28 = call i32 (i8*, ...) @__isoc99_scanf(i8* getelementptr inbounds ([3 x i8], [3 x i8]* @.str.2, i64 0, i64 0), i32* %27)
  br label %29

29:                                               ; preds = %21
  %30 = load i32, i32* %4, align 4
  %31 = add nsw i32 %30, 1
  store i32 %31, i32* %4, align 4
  br label %17

32:                                               ; preds = %17
  br label %33

33:                                               ; preds = %32
  %34 = load i32, i32* %3, align 4
  %35 = add nsw i32 %34, 1
  store i32 %35, i32* %3, align 4
  br label %12

36:                                               ; preds = %12
  store i32 0, i32* %7, align 4
  %37 = load i32, i32* %5, align 4
  %38 = sub nsw i32 %37, 1
  store i32 %38, i32* %8, align 4
  store i32 0, i32* %9, align 4
  %39 = load i32, i32* %6, align 4
  %40 = sub nsw i32 %39, 1
  store i32 %40, i32* %10, align 4
  br label %41

41:                                               ; preds = %51, %36
  %42 = load i32, i32* %7, align 4
  %43 = load i32, i32* %8, align 4
  %44 = icmp sle i32 %42, %43
  br i1 %44, label %45, label %49

45:                                               ; preds = %41
  %46 = load i32, i32* %9, align 4
  %47 = load i32, i32* %10, align 4
  %48 = icmp sle i32 %46, %47
  br label %49

49:                                               ; preds = %45, %41
  %50 = phi i1 [ false, %41 ], [ %48, %45 ]
  br i1 %50, label %51, label %65

51:                                               ; preds = %49
  %52 = getelementptr inbounds [100 x [100 x i32]], [100 x [100 x i32]]* %2, i64 0, i64 0
  %53 = load i32, i32* %7, align 4
  %54 = load i32, i32* %8, align 4
  %55 = load i32, i32* %9, align 4
  %56 = load i32, i32* %10, align 4
  call void @circle([100 x i32]* %52, i32 %53, i32 %54, i32 %55, i32 %56)
  %57 = load i32, i32* %7, align 4
  %58 = add nsw i32 %57, 1
  store i32 %58, i32* %7, align 4
  %59 = load i32, i32* %8, align 4
  %60 = add nsw i32 %59, -1
  store i32 %60, i32* %8, align 4
  %61 = load i32, i32* %9, align 4
  %62 = add nsw i32 %61, 1
  store i32 %62, i32* %9, align 4
  %63 = load i32, i32* %10, align 4
  %64 = add nsw i32 %63, -1
  store i32 %64, i32* %10, align 4
  br label %41

65:                                               ; preds = %49
  ret i32 0
}

declare dso_local i32 @__isoc99_scanf(i8*, ...) #1


!llvm.module.flags = !{!0}
!llvm.ident = !{!1}

!0 = !{i32 1, !"wchar_size", i32 4}
!1 = !{!"clang version 10.0.0-4ubuntu1 "}
